target datalayout = "e-m:e-p270:32:32-p271:32:32-p272:64:64-i64:64-i128:128-f80:128-n8:16:32:64-S128"
target triple = "x86_64-pc-linux-gnu"

%struct.jpeg_decompress_struct = type { ptr, ptr, ptr, ptr, i32, i32, ptr, i32, i32, i32, i32, i32, i32, i32, double, i32, i32, i32, i32, i32, i32, i32, i32, i32, i32, i32, i32, i32, i32, i32, i32, i32, i32, ptr, i32, i32, i32, i32, i32, ptr, [4 x ptr], [4 x ptr], [4 x ptr], i32, ptr, i32, i32, [16 x i8], [16 x i8], [16 x i8], i32, i32, i8, i8, i8, i16, i16, i32, i8, i32, ptr, i32, i32, i32, i32, ptr, i32, [4 x ptr], i32, i32, i32, [10 x i32], i32, i32, i32, i32, i32, ptr, ptr, ptr, ptr, ptr, ptr, ptr, ptr, ptr, ptr, ptr }
%struct.jpeg_input_controller = type { ptr, ptr, ptr, ptr, i32, i32 }
%struct.jpeg_error_mgr = type { ptr, ptr, ptr, ptr, ptr, i32, %union.anon, i32, i64, ptr, i32, ptr, i32, i32 }
%union.anon = type { [8 x i32], [48 x i8] }
%struct.jpeg_decomp_master = type { ptr, ptr, i32, i32, i32, i32, [10 x i32], [10 x i32], i32, i32, ptr }

; Function Attrs: nounwind uwtable
define i32 @jpeg_finish_output(ptr noundef %0) #0 {
  %2 = alloca i32, align 4
  %3 = alloca ptr, align 8
  store ptr %0, ptr %3, align 8, !tbaa !3
  %4 = load ptr, ptr %3, align 8, !tbaa !3
  %5 = getelementptr inbounds nuw %struct.jpeg_decompress_struct, ptr %4, i32 0, i32 5
  %6 = load i32, ptr %5, align 4, !tbaa !8
  %7 = icmp eq i32 %6, 205
  br i1 %7, label %13, label %8

8:                                                ; preds = %1
  %9 = load ptr, ptr %3, align 8, !tbaa !3
  %10 = getelementptr inbounds nuw %struct.jpeg_decompress_struct, ptr %9, i32 0, i32 5
  %11 = load i32, ptr %10, align 4, !tbaa !8
  %12 = icmp eq i32 %11, 206
  br i1 %12, label %13, label %27

13:                                               ; preds = %8, %1
  %14 = load ptr, ptr %3, align 8, !tbaa !3
  %15 = getelementptr inbounds nuw %struct.jpeg_decompress_struct, ptr %14, i32 0, i32 15
  %16 = load i32, ptr %15, align 8, !tbaa !32
  %17 = icmp ne i32 %16, 0
  br i1 %17, label %18, label %27

18:                                               ; preds = %13
  %19 = load ptr, ptr %3, align 8, !tbaa !3
  %20 = getelementptr inbounds nuw %struct.jpeg_decompress_struct, ptr %19, i32 0, i32 77
  %21 = load ptr, ptr %20, align 8, !tbaa !52
  %22 = getelementptr inbounds nuw %struct.jpeg_decomp_master, ptr %21, i32 0, i32 1
  %23 = load ptr, ptr %22, align 8, !tbaa !66
  %24 = load ptr, ptr %3, align 8, !tbaa !3
  call void %23(ptr noundef %24)
  %25 = load ptr, ptr %3, align 8, !tbaa !3
  %26 = getelementptr inbounds nuw %struct.jpeg_decompress_struct, ptr %25, i32 0, i32 5
  store i32 208, ptr %26, align 4, !tbaa !8
  br label %52

27:                                               ; preds = %13, %8
  %28 = load ptr, ptr %3, align 8, !tbaa !3
  %29 = getelementptr inbounds nuw %struct.jpeg_decompress_struct, ptr %28, i32 0, i32 5
  %30 = load i32, ptr %29, align 4, !tbaa !8
  %31 = icmp ne i32 %30, 208
  br i1 %31, label %32, label %51

32:                                               ; preds = %27
  %33 = load ptr, ptr %3, align 8, !tbaa !3
  %34 = getelementptr inbounds nuw %struct.jpeg_decompress_struct, ptr %33, i32 0, i32 0
  %35 = load ptr, ptr %34, align 8, !tbaa !47
  %36 = getelementptr inbounds nuw %struct.jpeg_error_mgr, ptr %35, i32 0, i32 5
  store i32 20, ptr %36, align 8, !tbaa !48
  %37 = load ptr, ptr %3, align 8, !tbaa !3
  %38 = getelementptr inbounds nuw %struct.jpeg_decompress_struct, ptr %37, i32 0, i32 5
  %39 = load i32, ptr %38, align 4, !tbaa !8
  %40 = load ptr, ptr %3, align 8, !tbaa !3
  %41 = getelementptr inbounds nuw %struct.jpeg_decompress_struct, ptr %40, i32 0, i32 0
  %42 = load ptr, ptr %41, align 8, !tbaa !47
  %43 = getelementptr inbounds nuw %struct.jpeg_error_mgr, ptr %42, i32 0, i32 6
  %44 = getelementptr inbounds [8 x i32], ptr %43, i64 0, i64 0
  store i32 %39, ptr %44, align 4, !tbaa !50
  %45 = load ptr, ptr %3, align 8, !tbaa !3
  %46 = getelementptr inbounds nuw %struct.jpeg_decompress_struct, ptr %45, i32 0, i32 0
  %47 = load ptr, ptr %46, align 8, !tbaa !47
  %48 = getelementptr inbounds nuw %struct.jpeg_error_mgr, ptr %47, i32 0, i32 0
  %49 = load ptr, ptr %48, align 8, !tbaa !51
  %50 = load ptr, ptr %3, align 8, !tbaa !3
  call void %49(ptr noundef %50)
  br label %51

51:                                               ; preds = %32, %27
  br label %52

52:                                               ; preds = %51, %18
  br label %53

53:                                               ; preds = %81, %52
  %54 = load ptr, ptr %3, align 8, !tbaa !3
  %55 = getelementptr inbounds nuw %struct.jpeg_decompress_struct, ptr %54, i32 0, i32 35
  %56 = load i32, ptr %55, align 4, !tbaa !45
  %57 = load ptr, ptr %3, align 8, !tbaa !3
  %58 = getelementptr inbounds nuw %struct.jpeg_decompress_struct, ptr %57, i32 0, i32 37
  %59 = load i32, ptr %58, align 4, !tbaa !46
  %60 = icmp sle i32 %56, %59
  br i1 %60, label %61, label %69

61:                                               ; preds = %53
  %62 = load ptr, ptr %3, align 8, !tbaa !3
  %63 = getelementptr inbounds nuw %struct.jpeg_decompress_struct, ptr %62, i32 0, i32 81
  %64 = load ptr, ptr %63, align 8, !tbaa !33
  %65 = getelementptr inbounds nuw %struct.jpeg_input_controller, ptr %64, i32 0, i32 5
  %66 = load i32, ptr %65, align 4, !tbaa !101
  %67 = icmp ne i32 %66, 0
  %68 = xor i1 %67, true
  br label %69

69:                                               ; preds = %61, %53
  %70 = phi i1 [ false, %53 ], [ %68, %61 ]
  br i1 %70, label %71, label %82

71:                                               ; preds = %69
  %72 = load ptr, ptr %3, align 8, !tbaa !3
  %73 = getelementptr inbounds nuw %struct.jpeg_decompress_struct, ptr %72, i32 0, i32 81
  %74 = load ptr, ptr %73, align 8, !tbaa !33
  %75 = getelementptr inbounds nuw %struct.jpeg_input_controller, ptr %74, i32 0, i32 0
  %76 = load ptr, ptr %75, align 8, !tbaa !40
  %77 = load ptr, ptr %3, align 8, !tbaa !3
  %78 = call i32 %76(ptr noundef %77)
  %79 = icmp eq i32 %78, 0
  br i1 %79, label %80, label %81

80:                                               ; preds = %71
  store i32 0, ptr %2, align 4
  br label %85

81:                                               ; preds = %71
  br label %53, !llvm.loop !144

82:                                               ; preds = %69
  %83 = load ptr, ptr %3, align 8, !tbaa !3
  %84 = getelementptr inbounds nuw %struct.jpeg_decompress_struct, ptr %83, i32 0, i32 5
  store i32 207, ptr %84, align 4, !tbaa !8
  store i32 1, ptr %2, align 4
  br label %85

85:                                               ; preds = %82, %80
  %86 = load i32, ptr %2, align 4
  ret i32 %86
}