; Function Attrs: nounwind uwtable
define range(i32 0, 2) i32 @jpeg_finish_output(ptr noundef %0) local_unnamed_addr #0 {
  %2 = getelementptr inbounds nuw i8, ptr %0, i64 36
  %3 = load i32, ptr %2, align 4, !tbaa !3
  %.off = add i32 %3, -205
  %switch = icmp ult i32 %.off, 2
  br i1 %switch, label %4, label %12

4:                                                ; preds = %1
  %5 = getelementptr inbounds nuw i8, ptr %0, i64 88
  %6 = load i32, ptr %5, align 8, !tbaa !30
  %.not = icmp eq i32 %6, 0
  br i1 %.not, label %.thread, label %7

7:                                                ; preds = %4
  %8 = getelementptr inbounds nuw i8, ptr %0, i64 544
  %9 = load ptr, ptr %8, align 8, !tbaa !49
  %10 = getelementptr inbounds nuw i8, ptr %9, i64 8
  %11 = load ptr, ptr %10, align 8, !tbaa !64
  tail call void %11(ptr noundef nonnull %0) #5
  store i32 208, ptr %2, align 4, !tbaa !3
  br label %18

12:                                               ; preds = %1
  %.not19 = icmp eq i32 %3, 208
  br i1 %.not19, label %18, label %.thread

.thread:                                          ; preds = %4, %12
  %13 = load ptr, ptr %0, align 8, !tbaa !44
  %14 = getelementptr inbounds nuw i8, ptr %13, i64 40
  store i32 20, ptr %14, align 8, !tbaa !45
  %15 = getelementptr inbounds nuw i8, ptr %13, i64 44
  store i32 %3, ptr %15, align 4, !tbaa !47
  %16 = load ptr, ptr %0, align 8, !tbaa !44
  %17 = load ptr, ptr %16, align 8, !tbaa !48
  tail call void %17(ptr noundef nonnull %0) #5
  br label %18

18:                                               ; preds = %12, %.thread, %7
  %19 = getelementptr inbounds nuw i8, ptr %0, i64 172
  %20 = getelementptr inbounds nuw i8, ptr %0, i64 180
  %21 = getelementptr inbounds nuw i8, ptr %0, i64 576
  br label %22

22:                                               ; preds = %29, %18
  %23 = load i32, ptr %19, align 4, !tbaa !42
  %24 = load i32, ptr %20, align 4, !tbaa !43
  %.not20 = icmp sgt i32 %23, %24
  br i1 %.not20, label %.critedge, label %25

25:                                               ; preds = %22
  %26 = load ptr, ptr %21, align 8, !tbaa !31
  %27 = getelementptr inbounds nuw i8, ptr %26, i64 36
  %28 = load i32, ptr %27, align 4, !tbaa !96
  %.not21 = icmp eq i32 %28, 0
  br i1 %.not21, label %29, label %.critedge

29:                                               ; preds = %25
  %30 = load ptr, ptr %26, align 8, !tbaa !38
  %31 = tail call i32 %30(ptr noundef nonnull %0) #5
  %32 = icmp eq i32 %31, 0
  br i1 %32, label %.loopexit, label %22, !llvm.loop !141

.critedge:                                        ; preds = %22, %25
  store i32 207, ptr %2, align 4, !tbaa !3
  br label %.loopexit

.loopexit:                                        ; preds = %29, %.critedge
  %.0 = phi i32 [ 1, %.critedge ], [ 0, %29 ]
  ret i32 %.0
}